target datalayout = "e-m:e-p270:32:32-p271:32:32-p272:64:64-i64:64-i128:128-f80:128-n8:16:32:64-S128"
target triple = "x86_64-pc-linux-gnu"

%struct.HashJoinTableData = type { i32, i32, i32, i32, i32, %union.anon, i8, ptr, i32, i32, ptr, i32, i32, i32, i32, i8, double, double, double, ptr, ptr, i64, i64, i64, i64, i64, ptr, ptr, ptr, ptr, ptr, ptr, ptr, ptr, i64 }
%union.anon = type { ptr }
%struct.proclist_head = type { i32, i32 }
%struct.Barrier = type { i8, i32, i32, i32, i32, i8, %struct.ConditionVariable }
%struct.ConditionVariable = type { i8, %struct.proclist_head }
%struct.ParallelHashJoinBatchAccessor = type { ptr, i64, i64, i64, i64, i64, i8, i8, i8, ptr, ptr }
%struct.ParallelHashJoinBatch = type { i64, %struct.Barrier, i64, i64, i64, i64, i64, i8, i8 }
%struct.HashMemoryChunkData = type { i32, i64, i64, %union.anon.1 }
%union.anon.1 = type { ptr }

; Function Attrs: nounwind uwtable
define dso_local void @ExecHashTableDetachBatch(ptr noundef %0) #0 {
  %2 = alloca ptr, align 8
  %3 = alloca i32, align 4
  %4 = alloca ptr, align 8
  %5 = alloca i8, align 1
  %6 = alloca ptr, align 8
  %7 = alloca i64, align 8
  store ptr %0, ptr %2, align 8
  %8 = load ptr, ptr %2, align 8
  %9 = getelementptr inbounds nuw %struct.HashJoinTableData, ptr %8, i32 0, i32 32
  %10 = load ptr, ptr %9, align 8
  %11 = icmp ne ptr %10, null
  br i1 %11, label %12, label %154

12:                                               ; preds = %1
  %13 = load ptr, ptr %2, align 8
  %14 = getelementptr inbounds nuw %struct.HashJoinTableData, ptr %13, i32 0, i32 12
  %15 = load i32, ptr %14, align 4
  %16 = icmp sge i32 %15, 0
  br i1 %16, label %17, label %154

17:                                               ; preds = %12
  call void @llvm.lifetime.start.p0(i64 4, ptr %3) #9
  %18 = load ptr, ptr %2, align 8
  %19 = getelementptr inbounds nuw %struct.HashJoinTableData, ptr %18, i32 0, i32 12
  %20 = load i32, ptr %19, align 4
  store i32 %20, ptr %3, align 4
  call void @llvm.lifetime.start.p0(i64 8, ptr %4) #9
  %21 = load ptr, ptr %2, align 8
  %22 = getelementptr inbounds nuw %struct.HashJoinTableData, ptr %21, i32 0, i32 33
  %23 = load ptr, ptr %22, align 8
  %24 = load i32, ptr %3, align 4
  %25 = sext i32 %24 to i64
  %26 = getelementptr inbounds %struct.ParallelHashJoinBatchAccessor, ptr %23, i64 %25
  %27 = getelementptr inbounds nuw %struct.ParallelHashJoinBatchAccessor, ptr %26, i32 0, i32 0
  %28 = load ptr, ptr %27, align 8
  store ptr %28, ptr %4, align 8
  call void @llvm.lifetime.start.p0(i64 1, ptr %5) #9
  store i8 1, ptr %5, align 1
  %29 = load ptr, ptr %2, align 8
  %30 = getelementptr inbounds nuw %struct.HashJoinTableData, ptr %29, i32 0, i32 33
  %31 = load ptr, ptr %30, align 8
  %32 = load i32, ptr %3, align 4
  %33 = sext i32 %32 to i64
  %34 = getelementptr inbounds %struct.ParallelHashJoinBatchAccessor, ptr %31, i64 %33
  %35 = getelementptr inbounds nuw %struct.ParallelHashJoinBatchAccessor, ptr %34, i32 0, i32 9
  %36 = load ptr, ptr %35, align 8
  call void @sts_end_parallel_scan(ptr noundef %36)
  %37 = load ptr, ptr %2, align 8
  %38 = getelementptr inbounds nuw %struct.HashJoinTableData, ptr %37, i32 0, i32 33
  %39 = load ptr, ptr %38, align 8
  %40 = load i32, ptr %3, align 4
  %41 = sext i32 %40 to i64
  %42 = getelementptr inbounds %struct.ParallelHashJoinBatchAccessor, ptr %39, i64 %41
  %43 = getelementptr inbounds nuw %struct.ParallelHashJoinBatchAccessor, ptr %42, i32 0, i32 10
  %44 = load ptr, ptr %43, align 8
  call void @sts_end_parallel_scan(ptr noundef %44)
  %45 = load ptr, ptr %4, align 8
  %46 = getelementptr inbounds nuw %struct.ParallelHashJoinBatch, ptr %45, i32 0, i32 1
  %47 = call i32 @BarrierPhase(ptr noundef %46)
  %48 = icmp eq i32 %47, 3
  br i1 %48, label %49, label %62

49:                                               ; preds = %17
  %50 = load ptr, ptr %2, align 8
  %51 = getelementptr inbounds nuw %struct.HashJoinTableData, ptr %50, i32 0, i32 33
  %52 = load ptr, ptr %51, align 8
  %53 = load i32, ptr %3, align 4
  %54 = sext i32 %53 to i64
  %55 = getelementptr inbounds %struct.ParallelHashJoinBatchAccessor, ptr %52, i64 %54
  %56 = getelementptr inbounds nuw %struct.ParallelHashJoinBatchAccessor, ptr %55, i32 0, i32 7
  %57 = load i8, ptr %56, align 1, !range !4, !noundef !5
  %58 = trunc i8 %57 to i1
  br i1 %58, label %62, label %59

59:                                               ; preds = %49
  %60 = load ptr, ptr %4, align 8
  %61 = getelementptr inbounds nuw %struct.ParallelHashJoinBatch, ptr %60, i32 0, i32 8
  store i8 1, ptr %61, align 1
  br label %62

62:                                               ; preds = %59, %49, %17
  %63 = load ptr, ptr %4, align 8
  %64 = getelementptr inbounds nuw %struct.ParallelHashJoinBatch, ptr %63, i32 0, i32 1
  %65 = call i32 @BarrierPhase(ptr noundef %64)
  %66 = icmp eq i32 %65, 3
  br i1 %66, label %67, label %72

67:                                               ; preds = %62
  %68 = load ptr, ptr %4, align 8
  %69 = getelementptr inbounds nuw %struct.ParallelHashJoinBatch, ptr %68, i32 0, i32 1
  %70 = call zeroext i1 @BarrierArriveAndDetachExceptLast(ptr noundef %69)
  %71 = zext i1 %70 to i8
  store i8 %71, ptr %5, align 1
  br label %72

72:                                               ; preds = %67, %62
  %73 = load i8, ptr %5, align 1, !range !4, !noundef !5
  %74 = trunc i8 %73 to i1
  br i1 %74, label %75, label %120

75:                                               ; preds = %72
  %76 = load ptr, ptr %4, align 8
  %77 = getelementptr inbounds nuw %struct.ParallelHashJoinBatch, ptr %76, i32 0, i32 1
  %78 = call zeroext i1 @BarrierArriveAndDetach(ptr noundef %77)
  br i1 %78, label %79, label %120

79:                                               ; preds = %75
  br label %80

80:                                               ; preds = %85, %79
  %81 = load ptr, ptr %4, align 8
  %82 = getelementptr inbounds nuw %struct.ParallelHashJoinBatch, ptr %81, i32 0, i32 2
  %83 = load i64, ptr %82, align 8
  %84 = icmp ne i64 %83, 0
  br i1 %84, label %85, label %105

85:                                               ; preds = %80
  call void @llvm.lifetime.start.p0(i64 8, ptr %6) #9
  %86 = load ptr, ptr %2, align 8
  %87 = getelementptr inbounds nuw %struct.HashJoinTableData, ptr %86, i32 0, i32 31
  %88 = load ptr, ptr %87, align 8
  %89 = load ptr, ptr %4, align 8
  %90 = getelementptr inbounds nuw %struct.ParallelHashJoinBatch, ptr %89, i32 0, i32 2
  %91 = load i64, ptr %90, align 8
  %92 = call ptr @dsa_get_address(ptr noundef %88, i64 noundef %91)
  store ptr %92, ptr %6, align 8
  call void @llvm.lifetime.start.p0(i64 8, ptr %7) #9
  %93 = load ptr, ptr %6, align 8
  %94 = getelementptr inbounds nuw %struct.HashMemoryChunkData, ptr %93, i32 0, i32 3
  %95 = load i64, ptr %94, align 8
  store i64 %95, ptr %7, align 8
  %96 = load ptr, ptr %2, align 8
  %97 = getelementptr inbounds nuw %struct.HashJoinTableData, ptr %96, i32 0, i32 31
  %98 = load ptr, ptr %97, align 8
  %99 = load ptr, ptr %4, align 8
  %100 = getelementptr inbounds nuw %struct.ParallelHashJoinBatch, ptr %99, i32 0, i32 2
  %101 = load i64, ptr %100, align 8
  call void @dsa_free(ptr noundef %98, i64 noundef %101)
  %102 = load i64, ptr %7, align 8
  %103 = load ptr, ptr %4, align 8
  %104 = getelementptr inbounds nuw %struct.ParallelHashJoinBatch, ptr %103, i32 0, i32 2
  store i64 %102, ptr %104, align 8
  call void @llvm.lifetime.end.p0(i64 8, ptr %7) #9
  call void @llvm.lifetime.end.p0(i64 8, ptr %6) #9
  br label %80, !llvm.loop !19

105:                                              ; preds = %80
  %106 = load ptr, ptr %4, align 8
  %107 = getelementptr inbounds nuw %struct.ParallelHashJoinBatch, ptr %106, i32 0, i32 0
  %108 = load i64, ptr %107, align 8
  %109 = icmp ne i64 %108, 0
  br i1 %109, label %110, label %119

110:                                              ; preds = %105
  %111 = load ptr, ptr %2, align 8
  %112 = getelementptr inbounds nuw %struct.HashJoinTableData, ptr %111, i32 0, i32 31
  %113 = load ptr, ptr %112, align 8
  %114 = load ptr, ptr %4, align 8
  %115 = getelementptr inbounds nuw %struct.ParallelHashJoinBatch, ptr %114, i32 0, i32 0
  %116 = load i64, ptr %115, align 8
  call void @dsa_free(ptr noundef %113, i64 noundef %116)
  %117 = load ptr, ptr %4, align 8
  %118 = getelementptr inbounds nuw %struct.ParallelHashJoinBatch, ptr %117, i32 0, i32 0
  store i64 0, ptr %118, align 8
  br label %119

119:                                              ; preds = %110, %105
  br label %120

120:                                              ; preds = %119, %75, %72
  %121 = load ptr, ptr %2, align 8
  %122 = getelementptr inbounds nuw %struct.HashJoinTableData, ptr %121, i32 0, i32 23
  %123 = load i64, ptr %122, align 8
  %124 = load ptr, ptr %4, align 8
  %125 = getelementptr inbounds nuw %struct.ParallelHashJoinBatch, ptr %124, i32 0, i32 3
  %126 = load i64, ptr %125, align 8
  %127 = load ptr, ptr %2, align 8
  %128 = getelementptr inbounds nuw %struct.HashJoinTableData, ptr %127, i32 0, i32 0
  %129 = load i32, ptr %128, align 8
  %130 = sext i32 %129 to i64
  %131 = mul i64 8, %130
  %132 = add i64 %126, %131
  %133 = icmp ugt i64 %123, %132
  br i1 %133, label %134, label %138

134:                                              ; preds = %120
  %135 = load ptr, ptr %2, align 8
  %136 = getelementptr inbounds nuw %struct.HashJoinTableData, ptr %135, i32 0, i32 23
  %137 = load i64, ptr %136, align 8
  br label %148

138:                                              ; preds = %120
  %139 = load ptr, ptr %4, align 8
  %140 = getelementptr inbounds nuw %struct.ParallelHashJoinBatch, ptr %139, i32 0, i32 3
  %141 = load i64, ptr %140, align 8
  %142 = load ptr, ptr %2, align 8
  %143 = getelementptr inbounds nuw %struct.HashJoinTableData, ptr %142, i32 0, i32 0
  %144 = load i32, ptr %143, align 8
  %145 = sext i32 %144 to i64
  %146 = mul i64 8, %145
  %147 = add i64 %141, %146
  br label %148

148:                                              ; preds = %138, %134
  %149 = phi i64 [ %137, %134 ], [ %147, %138 ]
  %150 = load ptr, ptr %2, align 8
  %151 = getelementptr inbounds nuw %struct.HashJoinTableData, ptr %150, i32 0, i32 23
  store i64 %149, ptr %151, align 8
  %152 = load ptr, ptr %2, align 8
  %153 = getelementptr inbounds nuw %struct.HashJoinTableData, ptr %152, i32 0, i32 12
  store i32 -1, ptr %153, align 4
  call void @llvm.lifetime.end.p0(i64 1, ptr %5) #9
  call void @llvm.lifetime.end.p0(i64 8, ptr %4) #9
  call void @llvm.lifetime.end.p0(i64 4, ptr %3) #9
  br label %154

154:                                              ; preds = %148, %12, %1
  ret void
}