; Function Attrs: nounwind uwtable
define dso_local void @ExecHashTableDetachBatch(ptr noundef captures(none) %0) local_unnamed_addr #0 {
  %2 = getelementptr inbounds nuw i8, ptr %0, i64 216
  %3 = load ptr, ptr %2, align 8
  %.not = icmp eq ptr %3, null
  br i1 %.not, label %59, label %4

4:                                                ; preds = %1
  %5 = getelementptr inbounds nuw i8, ptr %0, i64 68
  %6 = load i32, ptr %5, align 4
  %7 = icmp sgt i32 %6, -1
  br i1 %7, label %8, label %59

8:                                                ; preds = %4
  %9 = getelementptr inbounds nuw i8, ptr %0, i64 224
  %10 = load ptr, ptr %9, align 8
  %11 = zext nneg i32 %6 to i64
  %12 = getelementptr inbounds nuw %struct.ParallelHashJoinBatchAccessor, ptr %10, i64 %11
  %13 = load ptr, ptr %12, align 8
  %14 = getelementptr inbounds nuw i8, ptr %12, i64 56
  %15 = load ptr, ptr %14, align 8
  tail call void @sts_end_parallel_scan(ptr noundef %15) #16
  %16 = load ptr, ptr %9, align 8
  %17 = getelementptr inbounds nuw %struct.ParallelHashJoinBatchAccessor, ptr %16, i64 %11, i32 10
  %18 = load ptr, ptr %17, align 8
  tail call void @sts_end_parallel_scan(ptr noundef %18) #16
  %19 = getelementptr inbounds nuw i8, ptr %13, i64 8
  %20 = tail call i32 @BarrierPhase(ptr noundef nonnull %19) #16
  %21 = icmp eq i32 %20, 3
  br i1 %21, label %22, label %29

22:                                               ; preds = %8
  %23 = load ptr, ptr %9, align 8
  %24 = getelementptr inbounds nuw %struct.ParallelHashJoinBatchAccessor, ptr %23, i64 %11, i32 7
  %25 = load i8, ptr %24, align 1, !range !4, !noundef !5
  %26 = trunc nuw i8 %25 to i1
  br i1 %26, label %29, label %27

27:                                               ; preds = %22
  %28 = getelementptr inbounds nuw i8, ptr %13, i64 89
  store i8 1, ptr %28, align 1
  br label %29

29:                                               ; preds = %27, %22, %8
  %30 = tail call i32 @BarrierPhase(ptr noundef nonnull %19) #16
  %31 = icmp eq i32 %30, 3
  br i1 %31, label %32, label %.critedge

32:                                               ; preds = %29
  %33 = tail call zeroext i1 @BarrierArriveAndDetachExceptLast(ptr noundef nonnull %19) #16
  br i1 %33, label %.critedge, label %50

.critedge:                                        ; preds = %29, %32
  %34 = tail call zeroext i1 @BarrierArriveAndDetach(ptr noundef nonnull %19) #16
  br i1 %34, label %.preheader, label %50

.preheader:                                       ; preds = %.critedge
  %35 = getelementptr inbounds nuw i8, ptr %13, i64 48
  %36 = load i64, ptr %35, align 8
  %.not4143 = icmp eq i64 %36, 0
  br i1 %.not4143, label %._crit_edge, label %.lr.ph

.lr.ph:                                           ; preds = %.preheader
  %37 = getelementptr inbounds nuw i8, ptr %0, i64 208
  br label %38

38:                                               ; preds = %.lr.ph, %38
  %39 = phi i64 [ %36, %.lr.ph ], [ %43, %38 ]
  %40 = load ptr, ptr %37, align 8
  %41 = tail call ptr @dsa_get_address(ptr noundef %40, i64 noundef %39) #16
  %42 = getelementptr inbounds nuw i8, ptr %41, i64 24
  %43 = load i64, ptr %42, align 8
  %44 = load ptr, ptr %37, align 8
  %45 = load i64, ptr %35, align 8
  tail call void @dsa_free(ptr noundef %44, i64 noundef %45) #16
  store i64 %43, ptr %35, align 8
  %.not41 = icmp eq i64 %43, 0
  br i1 %.not41, label %._crit_edge, label %38, !llvm.loop !27

._crit_edge:                                      ; preds = %38, %.preheader
  %46 = load i64, ptr %13, align 8
  %.not42 = icmp eq i64 %46, 0
  br i1 %.not42, label %50, label %47

47:                                               ; preds = %._crit_edge
  %48 = getelementptr inbounds nuw i8, ptr %0, i64 208
  %49 = load ptr, ptr %48, align 8
  tail call void @dsa_free(ptr noundef %49, i64 noundef %46) #16
  store i64 0, ptr %13, align 8
  br label %50

50:                                               ; preds = %._crit_edge, %47, %.critedge, %32
  %51 = getelementptr inbounds nuw i8, ptr %0, i64 144
  %52 = load i64, ptr %51, align 8
  %53 = getelementptr inbounds nuw i8, ptr %13, i64 56
  %54 = load i64, ptr %53, align 8
  %55 = load i32, ptr %0, align 8
  %56 = sext i32 %55 to i64
  %57 = shl nsw i64 %56, 3
  %58 = add i64 %57, %54
  %. = tail call i64 @llvm.umax.i64(i64 %52, i64 %58)
  store i64 %., ptr %51, align 8
  store i32 -1, ptr %5, align 4
  br label %59

59:                                               ; preds = %50, %4, %1
  ret void
}